target datalayout = "e-m:e-p270:32:32-p271:32:32-p272:64:64-i64:64-i128:128-f80:128-n8:16:32:64-S128"
target triple = "x86_64-pc-linux-gnu"

%struct.AVCodecContext = type { ptr, i32, i32, ptr, i32, i32, ptr, ptr, ptr, i64, i32, i32, ptr, i32, %struct.AVRational, %struct.AVRational, %struct.AVRational, i32, i32, i32, i32, i32, %struct.AVRational, i32, i32, i32, i32, i32, i32, i32, i32, i32, i32, i32, ptr, ptr, i32, float, float, float, float, float, float, float, float, float, i32, i32, i32, i32, i32, i32, i32, i32, i32, i32, i32, i32, ptr, ptr, ptr, i32, i32, i32, i32, i32, i32, i32, i32, i32, i32, %struct.AVChannelLayout, i32, i32, i32, i32, i32, i32, i32, i32, ptr, i32, i32, i32, float, float, i32, i32, i32, i32, i32, ptr, i64, i64, float, float, i32, i32, ptr, ptr, i32, i32, i32, i32, i32, ptr, ptr, ptr, ptr, i32, i32, [8 x i64], i32, i32, i32, i32, i32, i32, i32, ptr, ptr, i32, i32, i32, i32, i32, i32, i32, i32, i32, i32, ptr, ptr, i32, i32, ptr, ptr, ptr, ptr, i32, i32, i64, i32, i32, i64, ptr, i64, ptr, i32, ptr, i32 }
%struct.AVRational = type { i32, i32 }
%struct.AVChannelLayout = type { i32, i32, %union.anon.0, ptr }
%union.anon.0 = type { i64 }
%struct.DPCMContext = type { [256 x i16], [2 x i32], i32, ptr }
%struct.AVCodec = type { ptr, ptr, i32, i32, i32, i8, ptr, ptr, ptr, ptr, ptr, ptr, ptr, ptr }

@.str.18 = private unnamed_addr constant [28 x i8] c"invalid number of channels\0A\00", align 1
@sol_table_old = internal constant [16 x i8] c"\00\01\02\03\06\0A\0F\15\EB\F1\F6\FA\FD\FE\FF\00", align 16
@sol_table_new = internal constant [16 x i8] c"\00\01\02\03\06\0A\0F\15\00\FF\FE\FD\FA\F6\F1\EB", align 16
@.str.19 = private unnamed_addr constant [22 x i8] c"Unknown SOL subcodec\0A\00", align 1

; Function Attrs: cold nounwind optsize uwtable
define internal i32 @dpcm_decode_init(ptr noundef %0) #0 {
  %2 = alloca i32, align 4
  %3 = alloca ptr, align 8
  %4 = alloca ptr, align 8
  %5 = alloca i32, align 4
  %6 = alloca i32, align 4
  %7 = alloca i16, align 2
  %8 = alloca i16, align 2
  %9 = alloca i16, align 2
  %10 = alloca i32, align 4
  %11 = alloca i32, align 4
  %12 = alloca i32, align 4
  store ptr %0, ptr %3, align 8, !tbaa !4
  call void @llvm.lifetime.start.p0(i64 8, ptr %4) #9
  %13 = load ptr, ptr %3, align 8, !tbaa !4
  %14 = getelementptr inbounds nuw %struct.AVCodecContext, ptr %13, i32 0, i32 6
  %15 = load ptr, ptr %14, align 8, !tbaa !9
  store ptr %15, ptr %4, align 8, !tbaa !29
  call void @llvm.lifetime.start.p0(i64 4, ptr %5) #9
  %16 = load ptr, ptr %3, align 8, !tbaa !4
  %17 = getelementptr inbounds nuw %struct.AVCodecContext, ptr %16, i32 0, i32 71
  %18 = getelementptr inbounds nuw %struct.AVChannelLayout, ptr %17, i32 0, i32 1
  %19 = load i32, ptr %18, align 4, !tbaa !31
  %20 = icmp slt i32 %19, 1
  br i1 %20, label %27, label %21

21:                                               ; preds = %1
  %22 = load ptr, ptr %3, align 8, !tbaa !4
  %23 = getelementptr inbounds nuw %struct.AVCodecContext, ptr %22, i32 0, i32 71
  %24 = getelementptr inbounds nuw %struct.AVChannelLayout, ptr %23, i32 0, i32 1
  %25 = load i32, ptr %24, align 4, !tbaa !31
  %26 = icmp sgt i32 %25, 2
  br i1 %26, label %27, label %29

27:                                               ; preds = %21, %1
  %28 = load ptr, ptr %3, align 8, !tbaa !4
  call void (ptr, i32, ptr, ...) @av_log(ptr noundef %28, i32 noundef 16, ptr noundef @.str.18)
  store i32 -22, ptr %2, align 4
  store i32 1, ptr %6, align 4
  br label %240

29:                                               ; preds = %21
  %30 = load ptr, ptr %4, align 8, !tbaa !29
  %31 = getelementptr inbounds nuw %struct.DPCMContext, ptr %30, i32 0, i32 1
  %32 = getelementptr inbounds [2 x i32], ptr %31, i64 0, i64 1
  store i32 0, ptr %32, align 4, !tbaa !32
  %33 = load ptr, ptr %4, align 8, !tbaa !29
  %34 = getelementptr inbounds nuw %struct.DPCMContext, ptr %33, i32 0, i32 1
  %35 = getelementptr inbounds [2 x i32], ptr %34, i64 0, i64 0
  store i32 0, ptr %35, align 8, !tbaa !32
  %36 = load ptr, ptr %3, align 8, !tbaa !4
  %37 = getelementptr inbounds nuw %struct.AVCodecContext, ptr %36, i32 0, i32 3
  %38 = load ptr, ptr %37, align 8, !tbaa !33
  %39 = getelementptr inbounds nuw %struct.AVCodec, ptr %38, i32 0, i32 3
  %40 = load i32, ptr %39, align 4, !tbaa !34
  switch i32 %40, label %220 [
    i32 81920, label %41
    i32 81923, label %70
    i32 81924, label %95
    i32 81928, label %127
    i32 81925, label %150
    i32 81927, label %198
  ]

41:                                               ; preds = %29
  store i32 0, ptr %5, align 4, !tbaa !32
  br label %42

42:                                               ; preds = %66, %41
  %43 = load i32, ptr %5, align 4, !tbaa !32
  %44 = icmp slt i32 %43, 128
  br i1 %44, label %45, label %69

45:                                               ; preds = %42
  call void @llvm.lifetime.start.p0(i64 2, ptr %7) #9
  %46 = load i32, ptr %5, align 4, !tbaa !32
  %47 = load i32, ptr %5, align 4, !tbaa !32
  %48 = mul nsw i32 %46, %47
  %49 = trunc i32 %48 to i16
  store i16 %49, ptr %7, align 2, !tbaa !39
  %50 = load i16, ptr %7, align 2, !tbaa !39
  %51 = load ptr, ptr %4, align 8, !tbaa !29
  %52 = getelementptr inbounds nuw %struct.DPCMContext, ptr %51, i32 0, i32 0
  %53 = load i32, ptr %5, align 4, !tbaa !32
  %54 = sext i32 %53 to i64
  %55 = getelementptr inbounds [256 x i16], ptr %52, i64 0, i64 %54
  store i16 %50, ptr %55, align 2, !tbaa !39
  %56 = load i16, ptr %7, align 2, !tbaa !39
  %57 = sext i16 %56 to i32
  %58 = sub nsw i32 0, %57
  %59 = trunc i32 %58 to i16
  %60 = load ptr, ptr %4, align 8, !tbaa !29
  %61 = getelementptr inbounds nuw %struct.DPCMContext, ptr %60, i32 0, i32 0
  %62 = load i32, ptr %5, align 4, !tbaa !32
  %63 = add nsw i32 %62, 128
  %64 = sext i32 %63 to i64
  %65 = getelementptr inbounds [256 x i16], ptr %61, i64 0, i64 %64
  store i16 %59, ptr %65, align 2, !tbaa !39
  call void @llvm.lifetime.end.p0(i64 2, ptr %7) #9
  br label %66

66:                                               ; preds = %45
  %67 = load i32, ptr %5, align 4, !tbaa !32
  %68 = add nsw i32 %67, 1
  store i32 %68, ptr %5, align 4, !tbaa !32
  br label %42, !llvm.loop !41

69:                                               ; preds = %42
  br label %221

70:                                               ; preds = %29
  %71 = load ptr, ptr %3, align 8, !tbaa !4
  %72 = getelementptr inbounds nuw %struct.AVCodecContext, ptr %71, i32 0, i32 5
  %73 = load i32, ptr %72, align 4, !tbaa !43
  switch i32 %73, label %92 [
    i32 1, label %74
    i32 2, label %83
    i32 3, label %94
  ]

74:                                               ; preds = %70
  %75 = load ptr, ptr %4, align 8, !tbaa !29
  %76 = getelementptr inbounds nuw %struct.DPCMContext, ptr %75, i32 0, i32 3
  store ptr @sol_table_old, ptr %76, align 8, !tbaa !44
  %77 = load ptr, ptr %4, align 8, !tbaa !29
  %78 = getelementptr inbounds nuw %struct.DPCMContext, ptr %77, i32 0, i32 1
  %79 = getelementptr inbounds [2 x i32], ptr %78, i64 0, i64 1
  store i32 128, ptr %79, align 4, !tbaa !32
  %80 = load ptr, ptr %4, align 8, !tbaa !29
  %81 = getelementptr inbounds nuw %struct.DPCMContext, ptr %80, i32 0, i32 1
  %82 = getelementptr inbounds [2 x i32], ptr %81, i64 0, i64 0
  store i32 128, ptr %82, align 8, !tbaa !32
  br label %94

83:                                               ; preds = %70
  %84 = load ptr, ptr %4, align 8, !tbaa !29
  %85 = getelementptr inbounds nuw %struct.DPCMContext, ptr %84, i32 0, i32 3
  store ptr @sol_table_new, ptr %85, align 8, !tbaa !44
  %86 = load ptr, ptr %4, align 8, !tbaa !29
  %87 = getelementptr inbounds nuw %struct.DPCMContext, ptr %86, i32 0, i32 1
  %88 = getelementptr inbounds [2 x i32], ptr %87, i64 0, i64 1
  store i32 128, ptr %88, align 4, !tbaa !32
  %89 = load ptr, ptr %4, align 8, !tbaa !29
  %90 = getelementptr inbounds nuw %struct.DPCMContext, ptr %89, i32 0, i32 1
  %91 = getelementptr inbounds [2 x i32], ptr %90, i64 0, i64 0
  store i32 128, ptr %91, align 8, !tbaa !32
  br label %94

92:                                               ; preds = %70
  %93 = load ptr, ptr %3, align 8, !tbaa !4
  call void (ptr, i32, ptr, ...) @av_log(ptr noundef %93, i32 noundef 16, ptr noundef @.str.19)
  store i32 -1, ptr %2, align 4
  store i32 1, ptr %6, align 4
  br label %240

94:                                               ; preds = %70, %83, %74
  br label %221

95:                                               ; preds = %29
  store i32 -128, ptr %5, align 4, !tbaa !32
  br label %96

96:                                               ; preds = %123, %95
  %97 = load i32, ptr %5, align 4, !tbaa !32
  %98 = icmp slt i32 %97, 128
  br i1 %98, label %99, label %126

99:                                               ; preds = %96
  call void @llvm.lifetime.start.p0(i64 2, ptr %8) #9
  %100 = load i32, ptr %5, align 4, !tbaa !32
  %101 = load i32, ptr %5, align 4, !tbaa !32
  %102 = mul nsw i32 %100, %101
  %103 = mul nsw i32 %102, 2
  %104 = trunc i32 %103 to i16
  store i16 %104, ptr %8, align 2, !tbaa !39
  %105 = load i32, ptr %5, align 4, !tbaa !32
  %106 = icmp slt i32 %105, 0
  br i1 %106, label %107, label %111

107:                                              ; preds = %99
  %108 = load i16, ptr %8, align 2, !tbaa !39
  %109 = sext i16 %108 to i32
  %110 = sub nsw i32 0, %109
  br label %114

111:                                              ; preds = %99
  %112 = load i16, ptr %8, align 2, !tbaa !39
  %113 = sext i16 %112 to i32
  br label %114

114:                                              ; preds = %111, %107
  %115 = phi i32 [ %110, %107 ], [ %113, %111 ]
  %116 = trunc i32 %115 to i16
  %117 = load ptr, ptr %4, align 8, !tbaa !29
  %118 = getelementptr inbounds nuw %struct.DPCMContext, ptr %117, i32 0, i32 0
  %119 = load i32, ptr %5, align 4, !tbaa !32
  %120 = add nsw i32 %119, 128
  %121 = sext i32 %120 to i64
  %122 = getelementptr inbounds [256 x i16], ptr %118, i64 0, i64 %121
  store i16 %116, ptr %122, align 2, !tbaa !39
  call void @llvm.lifetime.end.p0(i64 2, ptr %8) #9
  br label %123

123:                                              ; preds = %114
  %124 = load i32, ptr %5, align 4, !tbaa !32
  %125 = add nsw i32 %124, 1
  store i32 %125, ptr %5, align 4, !tbaa !32
  br label %96, !llvm.loop !46

126:                                              ; preds = %96
  br label %221

127:                                              ; preds = %29
  store i32 -128, ptr %5, align 4, !tbaa !32
  br label %128

128:                                              ; preds = %146, %127
  %129 = load i32, ptr %5, align 4, !tbaa !32
  %130 = icmp slt i32 %129, 128
  br i1 %130, label %131, label %149

131:                                              ; preds = %128
  call void @llvm.lifetime.start.p0(i64 2, ptr %9) #9
  %132 = load i32, ptr %5, align 4, !tbaa !32
  %133 = load i32, ptr %5, align 4, !tbaa !32
  %134 = mul nsw i32 %132, %133
  %135 = load i32, ptr %5, align 4, !tbaa !32
  %136 = mul nsw i32 %134, %135
  %137 = sdiv i32 %136, 64
  %138 = trunc i32 %137 to i16
  store i16 %138, ptr %9, align 2, !tbaa !39
  %139 = load i16, ptr %9, align 2, !tbaa !39
  %140 = load ptr, ptr %4, align 8, !tbaa !29
  %141 = getelementptr inbounds nuw %struct.DPCMContext, ptr %140, i32 0, i32 0
  %142 = load i32, ptr %5, align 4, !tbaa !32
  %143 = add nsw i32 %142, 128
  %144 = sext i32 %143 to i64
  %145 = getelementptr inbounds [256 x i16], ptr %141, i64 0, i64 %144
  store i16 %139, ptr %145, align 2, !tbaa !39
  call void @llvm.lifetime.end.p0(i64 2, ptr %9) #9
  br label %146

146:                                              ; preds = %131
  %147 = load i32, ptr %5, align 4, !tbaa !32
  %148 = add nsw i32 %147, 1
  store i32 %148, ptr %5, align 4, !tbaa !32
  br label %128, !llvm.loop !47

149:                                              ; preds = %128
  br label %221

150:                                              ; preds = %29
  call void @llvm.lifetime.start.p0(i64 4, ptr %10) #9
  store i32 0, ptr %10, align 4, !tbaa !32
  call void @llvm.lifetime.start.p0(i64 4, ptr %11) #9
  store i32 64, ptr %11, align 4, !tbaa !32
  call void @llvm.lifetime.start.p0(i64 4, ptr %12) #9
  store i32 45, ptr %12, align 4, !tbaa !32
  %151 = load ptr, ptr %4, align 8, !tbaa !29
  %152 = getelementptr inbounds nuw %struct.DPCMContext, ptr %151, i32 0, i32 0
  %153 = getelementptr inbounds [256 x i16], ptr %152, i64 0, i64 0
  store i16 0, ptr %153, align 8, !tbaa !39
  store i32 0, ptr %5, align 4, !tbaa !32
  br label %154

154:                                              ; preds = %186, %150
  %155 = load i32, ptr %5, align 4, !tbaa !32
  %156 = icmp slt i32 %155, 127
  br i1 %156, label %157, label %189

157:                                              ; preds = %154
  %158 = load i32, ptr %11, align 4, !tbaa !32
  %159 = ashr i32 %158, 5
  %160 = load i32, ptr %10, align 4, !tbaa !32
  %161 = add nsw i32 %160, %159
  store i32 %161, ptr %10, align 4, !tbaa !32
  %162 = load i32, ptr %12, align 4, !tbaa !32
  %163 = load i32, ptr %11, align 4, !tbaa !32
  %164 = add nsw i32 %163, %162
  store i32 %164, ptr %11, align 4, !tbaa !32
  %165 = load i32, ptr %12, align 4, !tbaa !32
  %166 = add nsw i32 %165, 2
  store i32 %166, ptr %12, align 4, !tbaa !32
  %167 = load i32, ptr %10, align 4, !tbaa !32
  %168 = trunc i32 %167 to i16
  %169 = load ptr, ptr %4, align 8, !tbaa !29
  %170 = getelementptr inbounds nuw %struct.DPCMContext, ptr %169, i32 0, i32 0
  %171 = load i32, ptr %5, align 4, !tbaa !32
  %172 = mul nsw i32 %171, 2
  %173 = add nsw i32 %172, 1
  %174 = sext i32 %173 to i64
  %175 = getelementptr inbounds [256 x i16], ptr %170, i64 0, i64 %174
  store i16 %168, ptr %175, align 2, !tbaa !39
  %176 = load i32, ptr %10, align 4, !tbaa !32
  %177 = sub nsw i32 0, %176
  %178 = trunc i32 %177 to i16
  %179 = load ptr, ptr %4, align 8, !tbaa !29
  %180 = getelementptr inbounds nuw %struct.DPCMContext, ptr %179, i32 0, i32 0
  %181 = load i32, ptr %5, align 4, !tbaa !32
  %182 = mul nsw i32 %181, 2
  %183 = add nsw i32 %182, 2
  %184 = sext i32 %183 to i64
  %185 = getelementptr inbounds [256 x i16], ptr %180, i64 0, i64 %184
  store i16 %178, ptr %185, align 2, !tbaa !39
  br label %186

186:                                              ; preds = %157
  %187 = load i32, ptr %5, align 4, !tbaa !32
  %188 = add nsw i32 %187, 1
  store i32 %188, ptr %5, align 4, !tbaa !32
  br label %154, !llvm.loop !48

189:                                              ; preds = %154
  %190 = load i32, ptr %10, align 4, !tbaa !32
  %191 = load i32, ptr %11, align 4, !tbaa !32
  %192 = ashr i32 %191, 5
  %193 = add nsw i32 %190, %192
  %194 = trunc i32 %193 to i16
  %195 = load ptr, ptr %4, align 8, !tbaa !29
  %196 = getelementptr inbounds nuw %struct.DPCMContext, ptr %195, i32 0, i32 0
  %197 = getelementptr inbounds [256 x i16], ptr %196, i64 0, i64 255
  store i16 %194, ptr %197, align 2, !tbaa !39
  call void @llvm.lifetime.end.p0(i64 4, ptr %12) #9
  call void @llvm.lifetime.end.p0(i64 4, ptr %11) #9
  call void @llvm.lifetime.end.p0(i64 4, ptr %10) #9
  br label %221

198:                                              ; preds = %29
  %199 = load ptr, ptr %3, align 8, !tbaa !4
  %200 = getelementptr inbounds nuw %struct.AVCodecContext, ptr %199, i32 0, i32 12
  %201 = load ptr, ptr %200, align 8, !tbaa !49
  %202 = icmp ne ptr %201, null
  br i1 %202, label %203, label %215

203:                                              ; preds = %198
  %204 = load ptr, ptr %3, align 8, !tbaa !4
  %205 = getelementptr inbounds nuw %struct.AVCodecContext, ptr %204, i32 0, i32 13
  %206 = load i32, ptr %205, align 8, !tbaa !50
  %207 = icmp sgt i32 %206, 0
  br i1 %207, label %208, label %215

208:                                              ; preds = %203
  %209 = load ptr, ptr %3, align 8, !tbaa !4
  %210 = getelementptr inbounds nuw %struct.AVCodecContext, ptr %209, i32 0, i32 12
  %211 = load ptr, ptr %210, align 8, !tbaa !49
  %212 = getelementptr inbounds i8, ptr %211, i64 0
  %213 = load i8, ptr %212, align 1, !tbaa !51
  %214 = zext i8 %213 to i32
  br label %216

215:                                              ; preds = %203, %198
  br label %216

216:                                              ; preds = %215, %208
  %217 = phi i32 [ %214, %208 ], [ 1, %215 ]
  %218 = load ptr, ptr %4, align 8, !tbaa !29
  %219 = getelementptr inbounds nuw %struct.DPCMContext, ptr %218, i32 0, i32 2
  store i32 %217, ptr %219, align 8, !tbaa !52
  br label %221

220:                                              ; preds = %29
  br label %221

221:                                              ; preds = %220, %216, %189, %149, %126, %94, %69
  %222 = load ptr, ptr %3, align 8, !tbaa !4
  %223 = getelementptr inbounds nuw %struct.AVCodecContext, ptr %222, i32 0, i32 3
  %224 = load ptr, ptr %223, align 8, !tbaa !33
  %225 = getelementptr inbounds nuw %struct.AVCodec, ptr %224, i32 0, i32 3
  %226 = load i32, ptr %225, align 4, !tbaa !34
  %227 = icmp eq i32 %226, 81923
  br i1 %227, label %228, label %236

228:                                              ; preds = %221
  %229 = load ptr, ptr %3, align 8, !tbaa !4
  %230 = getelementptr inbounds nuw %struct.AVCodecContext, ptr %229, i32 0, i32 5
  %231 = load i32, ptr %230, align 4, !tbaa !43
  %232 = icmp ne i32 %231, 3
  br i1 %232, label %233, label %236

233:                                              ; preds = %228
  %234 = load ptr, ptr %3, align 8, !tbaa !4
  %235 = getelementptr inbounds nuw %struct.AVCodecContext, ptr %234, i32 0, i32 70
  store i32 0, ptr %235, align 4, !tbaa !53
  br label %239

236:                                              ; preds = %228, %221
  %237 = load ptr, ptr %3, align 8, !tbaa !4
  %238 = getelementptr inbounds nuw %struct.AVCodecContext, ptr %237, i32 0, i32 70
  store i32 1, ptr %238, align 4, !tbaa !53
  br label %239

239:                                              ; preds = %236, %233
  store i32 0, ptr %2, align 4
  store i32 1, ptr %6, align 4
  br label %240

240:                                              ; preds = %239, %92, %27
  call void @llvm.lifetime.end.p0(i64 4, ptr %5) #9
  call void @llvm.lifetime.end.p0(i64 8, ptr %4) #9
  %241 = load i32, ptr %2, align 4
  ret i32 %241
}