; Function Attrs: cold nounwind optsize uwtable
define internal range(i32 -22, 1) i32 @dpcm_decode_init(ptr noundef %0) #0 {
  %2 = getelementptr inbounds nuw i8, ptr %0, i64 32
  %3 = load ptr, ptr %2, align 8, !tbaa !4
  %4 = getelementptr inbounds nuw i8, ptr %0, i64 356
  %5 = load i32, ptr %4, align 4, !tbaa !27
  %6 = add i32 %5, -3
  %or.cond = icmp ult i32 %6, -2
  br i1 %or.cond, label %7, label %8

7:                                                ; preds = %1
  tail call void (ptr, i32, ptr, ...) @av_log(ptr noundef nonnull %0, i32 noundef 16, ptr noundef nonnull @.str.18) #7
  br label %77

8:                                                ; preds = %1
  %9 = getelementptr inbounds nuw i8, ptr %3, i64 512
  %10 = getelementptr inbounds nuw i8, ptr %3, i64 516
  store i32 0, ptr %10, align 4, !tbaa !28
  store i32 0, ptr %9, align 8, !tbaa !28
  %11 = getelementptr inbounds nuw i8, ptr %0, i64 16
  %12 = load ptr, ptr %11, align 8, !tbaa !29
  %13 = getelementptr inbounds nuw i8, ptr %12, i64 20
  %14 = load i32, ptr %13, align 4, !tbaa !30
  switch i32 %14, label %.thread74 [
    i32 81920, label %.preheader
    i32 81923, label %21
    i32 81924, label %.preheader75
    i32 81928, label %.preheader77
    i32 81925, label %42
    i32 81927, label %59
  ]

.preheader:                                       ; preds = %8, %.preheader
  %indvars.iv98 = phi i64 [ %indvars.iv.next99, %.preheader ], [ 0, %8 ]
  %15 = mul nuw nsw i64 %indvars.iv98, %indvars.iv98
  %16 = trunc i64 %15 to i16
  %17 = getelementptr inbounds nuw [256 x i16], ptr %3, i64 0, i64 %indvars.iv98
  store i16 %16, ptr %17, align 2, !tbaa !35
  %18 = sub nsw i16 0, %16
  %19 = or disjoint i64 %indvars.iv98, 128
  %20 = getelementptr inbounds nuw [256 x i16], ptr %3, i64 0, i64 %19
  store i16 %18, ptr %20, align 2, !tbaa !35
  %indvars.iv.next99 = add nuw nsw i64 %indvars.iv98, 1
  %exitcond101.not = icmp eq i64 %indvars.iv.next99, 128
  br i1 %exitcond101.not, label %.loopexit, label %.preheader, !llvm.loop !37

21:                                               ; preds = %8
  %22 = getelementptr inbounds nuw i8, ptr %0, i64 28
  %23 = load i32, ptr %22, align 4, !tbaa !39
  switch i32 %23, label %28 [
    i32 1, label %24
    i32 2, label %26
    i32 3, label %.thread74
  ]

24:                                               ; preds = %21
  %25 = getelementptr inbounds nuw i8, ptr %3, i64 528
  store ptr @sol_table_old, ptr %25, align 8, !tbaa !40
  store i32 128, ptr %10, align 4, !tbaa !28
  store i32 128, ptr %9, align 8, !tbaa !28
  br label %.loopexit

26:                                               ; preds = %21
  %27 = getelementptr inbounds nuw i8, ptr %3, i64 528
  store ptr @sol_table_new, ptr %27, align 8, !tbaa !40
  store i32 128, ptr %10, align 4, !tbaa !28
  store i32 128, ptr %9, align 8, !tbaa !28
  br label %.loopexit

28:                                               ; preds = %21
  tail call void (ptr, i32, ptr, ...) @av_log(ptr noundef nonnull %0, i32 noundef 16, ptr noundef nonnull @.str.19) #7
  br label %77

.preheader75:                                     ; preds = %8, %.preheader75
  %indvars.iv94 = phi i64 [ %indvars.iv.next95, %.preheader75 ], [ -128, %8 ]
  %29 = mul nsw i64 %indvars.iv94, %indvars.iv94
  %.tr = trunc i64 %29 to i16
  %30 = shl i16 %.tr, 1
  %31 = icmp slt i64 %indvars.iv94, 0
  %32 = sub i16 0, %30
  %33 = select i1 %31, i16 %32, i16 %30
  %34 = add nsw i64 %indvars.iv94, 128
  %35 = getelementptr inbounds [256 x i16], ptr %3, i64 0, i64 %34
  store i16 %33, ptr %35, align 2, !tbaa !35
  %indvars.iv.next95 = add nsw i64 %indvars.iv94, 1
  %exitcond97.not = icmp eq i64 %indvars.iv.next95, 128
  br i1 %exitcond97.not, label %.loopexit, label %.preheader75, !llvm.loop !42

.preheader77:                                     ; preds = %8, %.preheader77
  %indvars.iv90 = phi i64 [ %indvars.iv.next91, %.preheader77 ], [ -128, %8 ]
  %indvars92 = trunc i64 %indvars.iv90 to i32
  %36 = mul nsw i32 %indvars92, %indvars92
  %37 = mul nsw i32 %36, %indvars92
  %38 = sdiv i32 %37, 64
  %39 = trunc i32 %38 to i16
  %40 = add nsw i64 %indvars.iv90, 128
  %41 = getelementptr inbounds [256 x i16], ptr %3, i64 0, i64 %40
  store i16 %39, ptr %41, align 2, !tbaa !35
  %indvars.iv.next91 = add nsw i64 %indvars.iv90, 1
  %exitcond93.not = icmp eq i64 %indvars.iv.next91, 128
  br i1 %exitcond93.not, label %.loopexit, label %.preheader77, !llvm.loop !43

42:                                               ; preds = %8
  store i16 0, ptr %3, align 8, !tbaa !35
  br label %43

43:                                               ; preds = %42, %43
  %indvars.iv = phi i64 [ 0, %42 ], [ %indvars.iv.next, %43 ]
  %.082 = phi i32 [ 45, %42 ], [ %47, %43 ]
  %.06781 = phi i32 [ 64, %42 ], [ %46, %43 ]
  %.06880 = phi i32 [ 0, %42 ], [ %45, %43 ]
  %44 = lshr i32 %.06781, 5
  %45 = add nuw nsw i32 %44, %.06880
  %46 = add nuw nsw i32 %.082, %.06781
  %47 = add nuw nsw i32 %.082, 2
  %48 = trunc i32 %45 to i16
  %49 = shl nuw nsw i64 %indvars.iv, 1
  %50 = or disjoint i64 %49, 1
  %51 = getelementptr inbounds nuw [256 x i16], ptr %3, i64 0, i64 %50
  store i16 %48, ptr %51, align 2, !tbaa !35
  %52 = sub i16 0, %48
  %53 = add nuw nsw i64 %49, 2
  %54 = getelementptr inbounds nuw [256 x i16], ptr %3, i64 0, i64 %53
  store i16 %52, ptr %54, align 2, !tbaa !35
  %indvars.iv.next = add nuw nsw i64 %indvars.iv, 1
  %exitcond.not = icmp eq i64 %indvars.iv.next, 127
  br i1 %exitcond.not, label %55, label %43, !llvm.loop !44

55:                                               ; preds = %43
  %56 = trunc i32 %45 to i16
  %57 = add i16 %56, 680
  %58 = getelementptr inbounds nuw i8, ptr %3, i64 510
  store i16 %57, ptr %58, align 2, !tbaa !35
  br label %.loopexit

59:                                               ; preds = %8
  %60 = getelementptr inbounds nuw i8, ptr %0, i64 72
  %61 = load ptr, ptr %60, align 8, !tbaa !45
  %.not = icmp eq ptr %61, null
  br i1 %.not, label %69, label %62

62:                                               ; preds = %59
  %63 = getelementptr inbounds nuw i8, ptr %0, i64 80
  %64 = load i32, ptr %63, align 8, !tbaa !46
  %65 = icmp sgt i32 %64, 0
  br i1 %65, label %66, label %69

66:                                               ; preds = %62
  %67 = load i8, ptr %61, align 1, !tbaa !47
  %68 = zext i8 %67 to i32
  br label %69

69:                                               ; preds = %59, %62, %66
  %70 = phi i32 [ %68, %66 ], [ 1, %62 ], [ 1, %59 ]
  %71 = getelementptr inbounds nuw i8, ptr %3, i64 520
  store i32 %70, ptr %71, align 8, !tbaa !48
  br label %.loopexit

.loopexit:                                        ; preds = %.preheader77, %.preheader75, %.preheader, %24, %26, %69, %55
  %.pr = load i32, ptr %13, align 4, !tbaa !30
  %72 = icmp eq i32 %.pr, 81923
  br i1 %72, label %.thread, label %.thread74

.thread:                                          ; preds = %.loopexit
  %.phi.trans.insert = getelementptr inbounds nuw i8, ptr %0, i64 28
  %.pre = load i32, ptr %.phi.trans.insert, align 4, !tbaa !39
  %73 = icmp eq i32 %.pre, 3
  br i1 %73, label %.thread74, label %74

74:                                               ; preds = %.thread
  %75 = getelementptr inbounds nuw i8, ptr %0, i64 348
  store i32 0, ptr %75, align 4, !tbaa !49
  br label %77

.thread74:                                        ; preds = %21, %8, %.thread, %.loopexit
  %76 = getelementptr inbounds nuw i8, ptr %0, i64 348
  store i32 1, ptr %76, align 4, !tbaa !49
  br label %77

77:                                               ; preds = %74, %.thread74, %28, %7
  %.069 = phi i32 [ -22, %7 ], [ -1, %28 ], [ 0, %.thread74 ], [ 0, %74 ]
  ret i32 %.069
}